; Function Attrs: mustprogress uwtable
define hidden noundef ptr @_ZN12bv2real_util9mk_bv_mulERK8rationalP4expr(ptr noundef nonnull align 8 dereferenceable(272) %this, ptr noundef nonnull align 8 dereferenceable(32) %n, ptr noundef %t) local_unnamed_addr #3 align 2 personality ptr @__gxx_personality_v0 {
entry:
  %s = alloca %class.obj_ref.42, align 8
  %m_kind.i.i.i.i.i = getelementptr inbounds i8, ptr %n, i64 4
  %bf.load.i.i.i.i.i = load i8, ptr %m_kind.i.i.i.i.i, align 4
  %bf.clear.i.i.i.i.i = and i8 %bf.load.i.i.i.i.i, 1
  %cmp.i.i.i.i.i = icmp eq i8 %bf.clear.i.i.i.i.i, 0
  %0 = load i32, ptr %n, align 8
  %cmp.i.i.i.i = icmp eq i32 %0, 1
  %1 = select i1 %cmp.i.i.i.i.i, i1 %cmp.i.i.i.i, i1 false
  br i1 %1, label %_ZNK8rational6is_oneEv.exit, label %if.end

_ZNK8rational6is_oneEv.exit:                      ; preds = %entry
  %m_den.i.i = getelementptr inbounds i8, ptr %n, i64 16
  %m_kind.i.i.i2.i.i = getelementptr inbounds i8, ptr %n, i64 20
  %bf.load.i.i.i3.i.i = load i8, ptr %m_kind.i.i.i2.i.i, align 4
  %bf.clear.i.i.i4.i.i = and i8 %bf.load.i.i.i3.i.i, 1
  %cmp.i.i.i5.i.i = icmp eq i8 %bf.clear.i.i.i4.i.i, 0
  %2 = load i32, ptr %m_den.i.i, align 8
  %cmp.i.i6.i.i = icmp eq i32 %2, 1
  %3 = select i1 %cmp.i.i.i5.i.i, i1 %cmp.i.i6.i.i, i1 false
  br i1 %3, label %return, label %if.end

if.end:                                           ; preds = %entry, %_ZNK8rational6is_oneEv.exit
  %call2 = tail call noundef ptr @_ZN12bv2real_util6mk_sbvERK8rational(ptr noundef nonnull align 8 dereferenceable(272) %this, ptr noundef nonnull align 8 dereferenceable(32) %n)
  %4 = load ptr, ptr %this, align 8
  store ptr %call2, ptr %s, align 8
  %m_manager.i = getelementptr inbounds i8, ptr %s, i64 8
  store ptr %4, ptr %m_manager.i, align 8
  %tobool.not.i.i = icmp eq ptr %call2, null
  br i1 %tobool.not.i.i, label %_ZN7obj_refI4expr11ast_managerEC2EPS0_RS1_.exit, label %_ZN11ast_manager7inc_refEP3ast.exit.i.i

_ZN11ast_manager7inc_refEP3ast.exit.i.i:          ; preds = %if.end
  %m_ref_count.i.i.i.i = getelementptr inbounds i8, ptr %call2, i64 8
  %5 = load i32, ptr %m_ref_count.i.i.i.i, align 4
  %inc.i.i.i.i = add i32 %5, 1
  store i32 %inc.i.i.i.i, ptr %m_ref_count.i.i.i.i, align 4
  br label %_ZN7obj_refI4expr11ast_managerEC2EPS0_RS1_.exit

_ZN7obj_refI4expr11ast_managerEC2EPS0_RS1_.exit:  ; preds = %if.end, %_ZN11ast_manager7inc_refEP3ast.exit.i.i
  %call6 = invoke noundef ptr @_ZN12bv2real_util9mk_bv_mulEP4exprS1_(ptr noundef nonnull align 8 dereferenceable(272) %this, ptr noundef %call2, ptr noundef %t)
          to label %invoke.cont5 unwind label %lpad

invoke.cont5:                                     ; preds = %_ZN7obj_refI4expr11ast_managerEC2EPS0_RS1_.exit
  br i1 %tobool.not.i.i, label %return, label %if.then.i.i.i

if.then.i.i.i:                                    ; preds = %invoke.cont5
  %m_ref_count.i.i.i.i4 = getelementptr inbounds i8, ptr %call2, i64 8
  %6 = load i32, ptr %m_ref_count.i.i.i.i4, align 4
  %dec.i.i.i.i = add i32 %6, -1
  store i32 %dec.i.i.i.i, ptr %m_ref_count.i.i.i.i4, align 4
  %cmp.i.i.i = icmp eq i32 %dec.i.i.i.i, 0
  br i1 %cmp.i.i.i, label %if.then2.i.i.i, label %return

if.then2.i.i.i:                                   ; preds = %if.then.i.i.i
  invoke void @_ZN11ast_manager11delete_nodeEP3ast(ptr noundef nonnull align 8 dereferenceable(976) %4, ptr noundef nonnull %call2)
          to label %return unwind label %terminate.lpad.i

terminate.lpad.i:                                 ; preds = %if.then2.i.i.i
  %7 = landingpad { ptr, i32 }
          catch ptr null
  %8 = extractvalue { ptr, i32 } %7, 0
  tail call void @__clang_call_terminate(ptr %8) #18
  unreachable

lpad:                                             ; preds = %_ZN7obj_refI4expr11ast_managerEC2EPS0_RS1_.exit
  %9 = landingpad { ptr, i32 }
          cleanup
  call void @_ZN7obj_refI4expr11ast_managerED2Ev(ptr noundef nonnull align 8 dereferenceable(16) %s) #19
  resume { ptr, i32 } %9

return:                                           ; preds = %if.then2.i.i.i, %if.then.i.i.i, %invoke.cont5, %_ZNK8rational6is_oneEv.exit
  %retval.0 = phi ptr [ %t, %_ZNK8rational6is_oneEv.exit ], [ %call6, %invoke.cont5 ], [ %call6, %if.then.i.i.i ], [ %call6, %if.then2.i.i.i ]
  ret ptr %retval.0
}